; Function Attrs: mustprogress uwtable
define hidden void @_ZN6google8protobuf8compiler6csharp21WrapperFieldGenerator17GenerateCodecCodeEPNS0_2io7PrinterE(ptr noundef nonnull align 8 dereferenceable(65) %this, ptr noundef %printer) unnamed_addr #3 align 2 personality ptr @__gxx_personality_v0 {
entry:
  %is_value_type = getelementptr inbounds i8, ptr %this, i64 64
  %0 = load i8, ptr %is_value_type, align 8
  %1 = and i8 %0, 1
  %tobool.not = icmp eq i8 %1, 0
  %variables_2 = getelementptr inbounds i8, ptr %this, i64 32
  br i1 %tobool.not, label %if.else, label %if.then

if.then:                                          ; preds = %entry
  tail call void @_ZN6google8protobuf2io7Printer5PrintIN4absl12lts_2023080213flat_hash_mapISt17basic_string_viewIcSt11char_traitsIcEENSt7__cxx1112basic_stringIcS9_SaIcEEENS5_18container_internal10StringHashENSF_8StringEqESaISt4pairIKSA_SE_EEEEEEvRKT_SA_(ptr noundef nonnull align 8 dereferenceable(256) %printer, ptr noundef nonnull align 8 dereferenceable(32) %variables_2, i64 63, ptr nonnull @.str.25)
  br label %if.end

if.else:                                          ; preds = %entry
  tail call void @_ZN6google8protobuf2io7Printer5PrintIN4absl12lts_2023080213flat_hash_mapISt17basic_string_viewIcSt11char_traitsIcEENSt7__cxx1112basic_stringIcS9_SaIcEEENS5_18container_internal10StringHashENSF_8StringEqESaISt4pairIKSA_SE_EEEEEEvRKT_SA_(ptr noundef nonnull align 8 dereferenceable(256) %printer, ptr noundef nonnull align 8 dereferenceable(32) %variables_2, i64 50, ptr nonnull @.str.26)
  br label %if.end

if.end:                                           ; preds = %if.else, %if.then
  ret void
}